target datalayout = "e-m:e-p270:32:32-p271:32:32-p272:64:64-i64:64-i128:128-f80:128-n8:16:32:64-S128"
target triple = "x86_64-pc-linux-gnu"

%"class.ncnn::ParamDict" = type { ptr, ptr }
%"class.ncnn::ModelBinFromMatArray" = type { %"class.ncnn::ModelBin", ptr }
%"class.ncnn::ModelBin" = type { ptr }
%"class.ncnn::MatMul_x86_avx" = type { %"class.ncnn::MatMul.base", ptr }
%"class.ncnn::MatMul.base" = type <{ %"class.ncnn::Layer", i32 }>
%"class.ncnn::Layer" = type { ptr, i8, i8, i8, i8, i8, i8, i8, i8, i8, i8, i8, i8, i8, i8, i8, i8, i8, i8, i8, i8, i32, ptr, i32, %"class.std::__cxx11::basic_string", %"class.std::__cxx11::basic_string", %"class.std::vector", %"class.std::vector", %"class.std::vector.3", %"class.std::vector.3" }
%"class.std::__cxx11::basic_string" = type { %"struct.std::__cxx11::basic_string<char>::_Alloc_hider", i64, %union.anon }
%"struct.std::__cxx11::basic_string<char>::_Alloc_hider" = type { ptr }
%union.anon = type { i64, [8 x i8] }
%"class.std::vector" = type { %"struct.std::_Vector_base" }
%"struct.std::_Vector_base" = type { %"struct.std::_Vector_base<int, std::allocator<int>>::_Vector_impl" }
%"struct.std::_Vector_base<int, std::allocator<int>>::_Vector_impl" = type { %"struct.std::_Vector_base<int, std::allocator<int>>::_Vector_impl_data" }
%"struct.std::_Vector_base<int, std::allocator<int>>::_Vector_impl_data" = type { ptr, ptr, ptr }
%"class.std::vector.3" = type { %"struct.std::_Vector_base.4" }
%"struct.std::_Vector_base.4" = type { %"struct.std::_Vector_base<ncnn::Mat, std::allocator<ncnn::Mat>>::_Vector_impl" }
%"struct.std::_Vector_base<ncnn::Mat, std::allocator<ncnn::Mat>>::_Vector_impl" = type { %"struct.std::_Vector_base<ncnn::Mat, std::allocator<ncnn::Mat>>::_Vector_impl_data" }
%"struct.std::_Vector_base<ncnn::Mat, std::allocator<ncnn::Mat>>::_Vector_impl_data" = type { ptr, ptr, ptr }
%"class.ncnn::MatMul" = type <{ %"class.ncnn::Layer", i32, [4 x i8] }>

; Function Attrs: mustprogress uwtable
define hidden noundef i32 @_ZN4ncnn14MatMul_x86_avx15create_pipelineERKNS_6OptionE(ptr noundef nonnull align 8 dereferenceable(224) %0, ptr noundef nonnull align 8 dereferenceable(64) %1) unnamed_addr #3 align 2 personality ptr @__gxx_personality_v0 {
  %3 = alloca ptr, align 8
  %4 = alloca ptr, align 8
  %5 = alloca %"class.ncnn::ParamDict", align 8
  %6 = alloca ptr, align 8
  %7 = alloca i32, align 4
  %8 = alloca %"class.ncnn::ModelBinFromMatArray", align 8
  store ptr %0, ptr %3, align 8, !tbaa !4
  store ptr %1, ptr %4, align 8, !tbaa !9
  %9 = load ptr, ptr %3, align 8
  %10 = call noundef ptr @_ZN4ncnn16create_layer_cpuEi(i32 noundef 74)
  %11 = getelementptr inbounds nuw %"class.ncnn::MatMul_x86_avx", ptr %9, i32 0, i32 1
  store ptr %10, ptr %11, align 8, !tbaa !11
  call void @llvm.lifetime.start.p0(i64 16, ptr %5) #14
  call void @_ZN4ncnn9ParamDictC1Ev(ptr noundef nonnull align 8 dereferenceable(16) %5)
  invoke void @_ZN4ncnn9ParamDict3setEii(ptr noundef nonnull align 8 dereferenceable(16) %5, i32 noundef 2, i32 noundef 0)
          to label %12 unwind label %48

12:                                               ; preds = %2
  %13 = getelementptr inbounds nuw %"class.ncnn::MatMul", ptr %9, i32 0, i32 1
  %14 = load i32, ptr %13, align 8, !tbaa !32
  invoke void @_ZN4ncnn9ParamDict3setEii(ptr noundef nonnull align 8 dereferenceable(16) %5, i32 noundef 3, i32 noundef %14)
          to label %15 unwind label %48

15:                                               ; preds = %12
  invoke void @_ZN4ncnn9ParamDict3setEii(ptr noundef nonnull align 8 dereferenceable(16) %5, i32 noundef 4, i32 noundef 0)
          to label %16 unwind label %48

16:                                               ; preds = %15
  invoke void @_ZN4ncnn9ParamDict3setEii(ptr noundef nonnull align 8 dereferenceable(16) %5, i32 noundef 5, i32 noundef 0)
          to label %17 unwind label %48

17:                                               ; preds = %16
  invoke void @_ZN4ncnn9ParamDict3setEii(ptr noundef nonnull align 8 dereferenceable(16) %5, i32 noundef 6, i32 noundef 1)
          to label %18 unwind label %48

18:                                               ; preds = %17
  invoke void @_ZN4ncnn9ParamDict3setEii(ptr noundef nonnull align 8 dereferenceable(16) %5, i32 noundef 7, i32 noundef 0)
          to label %19 unwind label %48

19:                                               ; preds = %18
  invoke void @_ZN4ncnn9ParamDict3setEii(ptr noundef nonnull align 8 dereferenceable(16) %5, i32 noundef 8, i32 noundef 0)
          to label %20 unwind label %48

20:                                               ; preds = %19
  invoke void @_ZN4ncnn9ParamDict3setEii(ptr noundef nonnull align 8 dereferenceable(16) %5, i32 noundef 9, i32 noundef 0)
          to label %21 unwind label %48

21:                                               ; preds = %20
  invoke void @_ZN4ncnn9ParamDict3setEii(ptr noundef nonnull align 8 dereferenceable(16) %5, i32 noundef 10, i32 noundef -1)
          to label %22 unwind label %48

22:                                               ; preds = %21
  invoke void @_ZN4ncnn9ParamDict3setEii(ptr noundef nonnull align 8 dereferenceable(16) %5, i32 noundef 11, i32 noundef 0)
          to label %23 unwind label %48

23:                                               ; preds = %22
  invoke void @_ZN4ncnn9ParamDict3setEii(ptr noundef nonnull align 8 dereferenceable(16) %5, i32 noundef 12, i32 noundef 1)
          to label %24 unwind label %48

24:                                               ; preds = %23
  %25 = getelementptr inbounds nuw %"class.ncnn::MatMul_x86_avx", ptr %9, i32 0, i32 1
  %26 = load ptr, ptr %25, align 8, !tbaa !11
  %27 = load ptr, ptr %26, align 8, !tbaa !33
  %28 = getelementptr inbounds ptr, ptr %27, i64 2
  %29 = load ptr, ptr %28, align 8
  %30 = invoke noundef i32 %29(ptr noundef nonnull align 8 dereferenceable(208) %26, ptr noundef nonnull align 8 dereferenceable(16) %5)
          to label %31 unwind label %48

31:                                               ; preds = %24
  %32 = getelementptr inbounds nuw %"class.ncnn::MatMul_x86_avx", ptr %9, i32 0, i32 1
  %33 = load ptr, ptr %32, align 8, !tbaa !11
  call void @llvm.lifetime.start.p0(i64 16, ptr %8) #14
  invoke void @_ZN4ncnn20ModelBinFromMatArrayC1EPKNS_3MatE(ptr noundef nonnull align 8 dereferenceable(16) %8, ptr noundef null)
          to label %34 unwind label %52

34:                                               ; preds = %31
  %35 = load ptr, ptr %33, align 8, !tbaa !33
  %36 = getelementptr inbounds ptr, ptr %35, i64 3
  %37 = load ptr, ptr %36, align 8
  %38 = invoke noundef i32 %37(ptr noundef nonnull align 8 dereferenceable(208) %33, ptr noundef nonnull align 8 dereferenceable(8) %8)
          to label %39 unwind label %56

39:                                               ; preds = %34
  call void @_ZN4ncnn20ModelBinFromMatArrayD1Ev(ptr noundef nonnull align 8 dereferenceable(16) %8) #14
  call void @llvm.lifetime.end.p0(i64 16, ptr %8) #14
  %40 = getelementptr inbounds nuw %"class.ncnn::MatMul_x86_avx", ptr %9, i32 0, i32 1
  %41 = load ptr, ptr %40, align 8, !tbaa !11
  %42 = load ptr, ptr %4, align 8, !tbaa !9
  %43 = load ptr, ptr %41, align 8, !tbaa !33
  %44 = getelementptr inbounds ptr, ptr %43, i64 4
  %45 = load ptr, ptr %44, align 8
  %46 = invoke noundef i32 %45(ptr noundef nonnull align 8 dereferenceable(208) %41, ptr noundef nonnull align 8 dereferenceable(64) %42)
          to label %47 unwind label %48

47:                                               ; preds = %39
  call void @_ZN4ncnn9ParamDictD1Ev(ptr noundef nonnull align 8 dereferenceable(16) %5) #14
  call void @llvm.lifetime.end.p0(i64 16, ptr %5) #14
  ret i32 0

48:                                               ; preds = %39, %24, %23, %22, %21, %20, %19, %18, %17, %16, %15, %12, %2
  %49 = landingpad { ptr, i32 }
          cleanup
  %50 = extractvalue { ptr, i32 } %49, 0
  store ptr %50, ptr %6, align 8
  %51 = extractvalue { ptr, i32 } %49, 1
  store i32 %51, ptr %7, align 4
  br label %61

52:                                               ; preds = %31
  %53 = landingpad { ptr, i32 }
          cleanup
  %54 = extractvalue { ptr, i32 } %53, 0
  store ptr %54, ptr %6, align 8
  %55 = extractvalue { ptr, i32 } %53, 1
  store i32 %55, ptr %7, align 4
  br label %60

56:                                               ; preds = %34
  %57 = landingpad { ptr, i32 }
          cleanup
  %58 = extractvalue { ptr, i32 } %57, 0
  store ptr %58, ptr %6, align 8
  %59 = extractvalue { ptr, i32 } %57, 1
  store i32 %59, ptr %7, align 4
  call void @_ZN4ncnn20ModelBinFromMatArrayD1Ev(ptr noundef nonnull align 8 dereferenceable(16) %8) #14
  br label %60

60:                                               ; preds = %56, %52
  call void @llvm.lifetime.end.p0(i64 16, ptr %8) #14
  br label %61

61:                                               ; preds = %60, %48
  call void @_ZN4ncnn9ParamDictD1Ev(ptr noundef nonnull align 8 dereferenceable(16) %5) #14
  call void @llvm.lifetime.end.p0(i64 16, ptr %5) #14
  br label %62

62:                                               ; preds = %61
  %63 = load ptr, ptr %6, align 8
  %64 = load i32, ptr %7, align 4
  %65 = insertvalue { ptr, i32 } poison, ptr %63, 0
  %66 = insertvalue { ptr, i32 } %65, i32 %64, 1
  resume { ptr, i32 } %66
}